target datalayout = "e-m:e-p270:32:32-p271:32:32-p272:64:64-i64:64-i128:128-f80:128-n8:16:32:64-S128"
target triple = "x86_64-pc-linux-gnu"

%struct.Gia_Man_t_ = type { ptr, ptr, i32, i32, i32, i32, ptr, ptr, i32, i32, i32, ptr, ptr, %struct.Vec_Int_t_, %struct.Vec_Int_t_, i32, i32, i32, %struct.Vec_Int_t_, ptr, ptr, ptr, i32, i32, i32, i32, ptr, ptr, ptr, ptr, ptr, i32, i32, ptr, i32, ptr, ptr, ptr, ptr, ptr, ptr, ptr, ptr, ptr, ptr, ptr, ptr, ptr, ptr, ptr, ptr, ptr, ptr, %struct.Vec_Int_t_, %struct.Vec_Int_t_, ptr, ptr, ptr, ptr, ptr, ptr, ptr, ptr, ptr, ptr, ptr, ptr, ptr, ptr, ptr, ptr, ptr, ptr, ptr, ptr, ptr, i32, float, float, ptr, ptr, i32, ptr, ptr, ptr, ptr, ptr, ptr, ptr, ptr, ptr, ptr, ptr, ptr, ptr, ptr, ptr, i64, i64, ptr, ptr, i32, i32, i32, i32, i32, i32, i32, i32, i32, i32, i32, i32, ptr, ptr, ptr, ptr, ptr, ptr, ptr, ptr, i32, i32, i32, ptr, i32, i32, ptr, ptr, ptr, ptr, ptr, ptr, i32, i32, ptr, %struct.Vec_Int_t_, %struct.Vec_Int_t_, %struct.Vec_Int_t_, ptr, ptr, ptr, i32, i32, i32, i32, ptr, ptr, ptr, ptr, ptr }
%struct.Vec_Int_t_ = type { i32, i32, ptr }

; Function Attrs: inlinehint nounwind uwtable
define internal ptr @Vec_IntEntryP(ptr noundef %0, i32 noundef %1) #2 {
  %3 = alloca ptr, align 8
  %4 = alloca i32, align 4
  store ptr %0, ptr %3, align 8, !tbaa !61
  store i32 %1, ptr %4, align 4, !tbaa !8
  %5 = load ptr, ptr %3, align 8, !tbaa !61
  %6 = getelementptr inbounds nuw %struct.Vec_Int_t_, ptr %5, i32 0, i32 2
  %7 = load ptr, ptr %6, align 8, !tbaa !63
  %8 = load i32, ptr %4, align 4, !tbaa !8
  %9 = sext i32 %8 to i64
  %10 = getelementptr inbounds i32, ptr %7, i64 %9
  ret ptr %10
}

; Function Attrs: inlinehint nounwind uwtable
define internal i32 @Vec_IntEntry(ptr noundef %0, i32 noundef %1) #2 {
  %3 = alloca ptr, align 8
  %4 = alloca i32, align 4
  store ptr %0, ptr %3, align 8, !tbaa !61
  store i32 %1, ptr %4, align 4, !tbaa !8
  %5 = load ptr, ptr %3, align 8, !tbaa !61
  %6 = getelementptr inbounds nuw %struct.Vec_Int_t_, ptr %5, i32 0, i32 2
  %7 = load ptr, ptr %6, align 8, !tbaa !63
  %8 = load i32, ptr %4, align 4, !tbaa !8
  %9 = sext i32 %8 to i64
  %10 = getelementptr inbounds i32, ptr %7, i64 %9
  %11 = load i32, ptr %10, align 4, !tbaa !8
  ret i32 %11
}

; Function Attrs: inlinehint nounwind uwtable
define internal i32 @Abc_LitNot(i32 noundef %0) #2 {
  %2 = alloca i32, align 4
  store i32 %0, ptr %2, align 4, !tbaa !8
  %3 = load i32, ptr %2, align 4, !tbaa !8
  %4 = xor i32 %3, 1
  ret i32 %4
}

; Function Attrs: inlinehint nounwind uwtable
define internal ptr @Gia_ObjCellFanins(ptr noundef %0, i32 noundef %1) #2 {
  %3 = alloca ptr, align 8
  %4 = alloca i32, align 4
  store ptr %0, ptr %3, align 8, !tbaa !20
  store i32 %1, ptr %4, align 4, !tbaa !8
  %5 = load ptr, ptr %3, align 8, !tbaa !20
  %6 = getelementptr inbounds nuw %struct.Gia_Man_t_, ptr %5, i32 0, i32 40
  %7 = load ptr, ptr %6, align 8, !tbaa !71
  %8 = load ptr, ptr %3, align 8, !tbaa !20
  %9 = getelementptr inbounds nuw %struct.Gia_Man_t_, ptr %8, i32 0, i32 40
  %10 = load ptr, ptr %9, align 8, !tbaa !71
  %11 = load i32, ptr %4, align 4, !tbaa !8
  %12 = call i32 @Vec_IntEntry(ptr noundef %10, i32 noundef %11)
  %13 = call ptr @Vec_IntEntryP(ptr noundef %7, i32 noundef %12)
  %14 = getelementptr inbounds i32, ptr %13, i64 1
  ret ptr %14
}

; Function Attrs: inlinehint nounwind uwtable
define internal i32 @Gia_ObjCellSize(ptr noundef %0, i32 noundef %1) #2 {
  %3 = alloca ptr, align 8
  %4 = alloca i32, align 4
  store ptr %0, ptr %3, align 8, !tbaa !20
  store i32 %1, ptr %4, align 4, !tbaa !8
  %5 = load ptr, ptr %3, align 8, !tbaa !20
  %6 = getelementptr inbounds nuw %struct.Gia_Man_t_, ptr %5, i32 0, i32 40
  %7 = load ptr, ptr %6, align 8, !tbaa !71
  %8 = load ptr, ptr %3, align 8, !tbaa !20
  %9 = getelementptr inbounds nuw %struct.Gia_Man_t_, ptr %8, i32 0, i32 40
  %10 = load ptr, ptr %9, align 8, !tbaa !71
  %11 = load i32, ptr %4, align 4, !tbaa !8
  %12 = call i32 @Vec_IntEntry(ptr noundef %10, i32 noundef %11)
  %13 = call i32 @Vec_IntEntry(ptr noundef %7, i32 noundef %12)
  ret i32 %13
}

; Function Attrs: inlinehint nounwind uwtable
define internal void @Gia_AigerWriteInt(ptr noundef %0, i32 noundef %1) #2 {
  %3 = alloca ptr, align 8
  %4 = alloca i32, align 4
  %5 = alloca i32, align 4
  store ptr %0, ptr %3, align 8, !tbaa !10
  store i32 %1, ptr %4, align 4, !tbaa !8
  call void @llvm.lifetime.start.p0(i64 4, ptr %5) #10
  store i32 3, ptr %5, align 4, !tbaa !8
  br label %6

6:                                                ; preds = %18, %2
  %7 = load i32, ptr %5, align 4, !tbaa !8
  %8 = icmp sge i32 %7, 0
  br i1 %8, label %9, label %21

9:                                                ; preds = %6
  %10 = load i32, ptr %4, align 4, !tbaa !8
  %11 = load i32, ptr %5, align 4, !tbaa !8
  %12 = mul nsw i32 8, %11
  %13 = ashr i32 %10, %12
  %14 = and i32 %13, 255
  %15 = trunc i32 %14 to i8
  %16 = load ptr, ptr %3, align 8, !tbaa !10
  %17 = getelementptr inbounds nuw i8, ptr %16, i32 1
  store ptr %17, ptr %3, align 8, !tbaa !10
  store i8 %15, ptr %16, align 1, !tbaa !17
  br label %18

18:                                               ; preds = %9
  %19 = load i32, ptr %5, align 4, !tbaa !8
  %20 = add nsw i32 %19, -1
  store i32 %20, ptr %5, align 4, !tbaa !8
  br label %6, !llvm.loop !49

21:                                               ; preds = %6
  call void @llvm.lifetime.end.p0(i64 4, ptr %5) #10
  ret void
}

; Function Attrs: inlinehint nounwind uwtable
define internal i32 @Gia_ObjCellId(ptr noundef %0, i32 noundef %1) #2 {
  %3 = alloca ptr, align 8
  %4 = alloca i32, align 4
  store ptr %0, ptr %3, align 8, !tbaa !20
  store i32 %1, ptr %4, align 4, !tbaa !8
  %5 = load ptr, ptr %3, align 8, !tbaa !20
  %6 = load i32, ptr %4, align 4, !tbaa !8
  %7 = call ptr @Gia_ObjCellFanins(ptr noundef %5, i32 noundef %6)
  %8 = load ptr, ptr %3, align 8, !tbaa !20
  %9 = load i32, ptr %4, align 4, !tbaa !8
  %10 = call i32 @Gia_ObjCellSize(ptr noundef %8, i32 noundef %9)
  %11 = sext i32 %10 to i64
  %12 = getelementptr inbounds i32, ptr %7, i64 %11
  %13 = load i32, ptr %12, align 4, !tbaa !8
  ret i32 %13
}

; Function Attrs: inlinehint nounwind uwtable
define internal i32 @Gia_ObjIsCellInv(ptr noundef %0, i32 noundef %1) #2 {
  %3 = alloca ptr, align 8
  %4 = alloca i32, align 4
  store ptr %0, ptr %3, align 8, !tbaa !20
  store i32 %1, ptr %4, align 4, !tbaa !8
  %5 = load ptr, ptr %3, align 8, !tbaa !20
  %6 = getelementptr inbounds nuw %struct.Gia_Man_t_, ptr %5, i32 0, i32 40
  %7 = load ptr, ptr %6, align 8, !tbaa !71
  %8 = load i32, ptr %4, align 4, !tbaa !8
  %9 = call i32 @Vec_IntEntry(ptr noundef %7, i32 noundef %8)
  %10 = icmp eq i32 %9, -1
  %11 = zext i1 %10 to i32
  ret i32 %11
}

; Function Attrs: nounwind uwtable
define i32 @Gia_AigerWriteCellMappingInstance(ptr noundef %0, ptr noundef %1, i32 noundef %2, i32 noundef %3) #0 {
  %5 = alloca ptr, align 8
  %6 = alloca ptr, align 8
  %7 = alloca i32, align 4
  %8 = alloca i32, align 4
  %9 = alloca i32, align 4
  %10 = alloca i32, align 4
  store ptr %0, ptr %5, align 8, !tbaa !20
  store ptr %1, ptr %6, align 8, !tbaa !10
  store i32 %2, ptr %7, align 4, !tbaa !8
  store i32 %3, ptr %8, align 4, !tbaa !8
  call void @llvm.lifetime.start.p0(i64 4, ptr %9) #10
  call void @llvm.lifetime.start.p0(i64 4, ptr %10) #10
  %11 = load ptr, ptr %5, align 8, !tbaa !20
  %12 = load i32, ptr %8, align 4, !tbaa !8
  %13 = call i32 @Gia_ObjIsCellInv(ptr noundef %11, i32 noundef %12)
  %14 = icmp ne i32 %13, 0
  br i1 %14, label %60, label %15

15:                                               ; preds = %4
  %16 = load ptr, ptr %6, align 8, !tbaa !10
  %17 = load i32, ptr %7, align 4, !tbaa !8
  %18 = sext i32 %17 to i64
  %19 = getelementptr inbounds i8, ptr %16, i64 %18
  %20 = load ptr, ptr %5, align 8, !tbaa !20
  %21 = load i32, ptr %8, align 4, !tbaa !8
  %22 = call i32 @Gia_ObjCellId(ptr noundef %20, i32 noundef %21)
  call void @Gia_AigerWriteInt(ptr noundef %19, i32 noundef %22)
  %23 = load i32, ptr %7, align 4, !tbaa !8
  %24 = add nsw i32 %23, 4
  store i32 %24, ptr %7, align 4, !tbaa !8
  %25 = load ptr, ptr %6, align 8, !tbaa !10
  %26 = load i32, ptr %7, align 4, !tbaa !8
  %27 = sext i32 %26 to i64
  %28 = getelementptr inbounds i8, ptr %25, i64 %27
  %29 = load i32, ptr %8, align 4, !tbaa !8
  call void @Gia_AigerWriteInt(ptr noundef %28, i32 noundef %29)
  %30 = load i32, ptr %7, align 4, !tbaa !8
  %31 = add nsw i32 %30, 4
  store i32 %31, ptr %7, align 4, !tbaa !8
  store i32 0, ptr %9, align 4, !tbaa !8
  br label %32

32:                                               ; preds = %56, %15
  %33 = load i32, ptr %9, align 4, !tbaa !8
  %34 = load ptr, ptr %5, align 8, !tbaa !20
  %35 = load i32, ptr %8, align 4, !tbaa !8
  %36 = call i32 @Gia_ObjCellSize(ptr noundef %34, i32 noundef %35)
  %37 = icmp slt i32 %33, %36
  br i1 %37, label %38, label %46

38:                                               ; preds = %32
  %39 = load ptr, ptr %5, align 8, !tbaa !20
  %40 = load i32, ptr %8, align 4, !tbaa !8
  %41 = call ptr @Gia_ObjCellFanins(ptr noundef %39, i32 noundef %40)
  %42 = load i32, ptr %9, align 4, !tbaa !8
  %43 = sext i32 %42 to i64
  %44 = getelementptr inbounds i32, ptr %41, i64 %43
  %45 = load i32, ptr %44, align 4, !tbaa !8
  store i32 %45, ptr %10, align 4, !tbaa !8
  br label %46

46:                                               ; preds = %38, %32
  %47 = phi i1 [ false, %32 ], [ true, %38 ]
  br i1 %47, label %48, label %59

48:                                               ; preds = %46
  %49 = load ptr, ptr %6, align 8, !tbaa !10
  %50 = load i32, ptr %7, align 4, !tbaa !8
  %51 = sext i32 %50 to i64
  %52 = getelementptr inbounds i8, ptr %49, i64 %51
  %53 = load i32, ptr %10, align 4, !tbaa !8
  call void @Gia_AigerWriteInt(ptr noundef %52, i32 noundef %53)
  %54 = load i32, ptr %7, align 4, !tbaa !8
  %55 = add nsw i32 %54, 4
  store i32 %55, ptr %7, align 4, !tbaa !8
  br label %56

56:                                               ; preds = %48
  %57 = load i32, ptr %9, align 4, !tbaa !8
  %58 = add nsw i32 %57, 1
  store i32 %58, ptr %9, align 4, !tbaa !8
  br label %32, !llvm.loop !70

59:                                               ; preds = %46
  br label %82

60:                                               ; preds = %4
  %61 = load ptr, ptr %6, align 8, !tbaa !10
  %62 = load i32, ptr %7, align 4, !tbaa !8
  %63 = sext i32 %62 to i64
  %64 = getelementptr inbounds i8, ptr %61, i64 %63
  call void @Gia_AigerWriteInt(ptr noundef %64, i32 noundef 3)
  %65 = load i32, ptr %7, align 4, !tbaa !8
  %66 = add nsw i32 %65, 4
  store i32 %66, ptr %7, align 4, !tbaa !8
  %67 = load ptr, ptr %6, align 8, !tbaa !10
  %68 = load i32, ptr %7, align 4, !tbaa !8
  %69 = sext i32 %68 to i64
  %70 = getelementptr inbounds i8, ptr %67, i64 %69
  %71 = load i32, ptr %8, align 4, !tbaa !8
  call void @Gia_AigerWriteInt(ptr noundef %70, i32 noundef %71)
  %72 = load i32, ptr %7, align 4, !tbaa !8
  %73 = add nsw i32 %72, 4
  store i32 %73, ptr %7, align 4, !tbaa !8
  %74 = load ptr, ptr %6, align 8, !tbaa !10
  %75 = load i32, ptr %7, align 4, !tbaa !8
  %76 = sext i32 %75 to i64
  %77 = getelementptr inbounds i8, ptr %74, i64 %76
  %78 = load i32, ptr %8, align 4, !tbaa !8
  %79 = call i32 @Abc_LitNot(i32 noundef %78)
  call void @Gia_AigerWriteInt(ptr noundef %77, i32 noundef %79)
  %80 = load i32, ptr %7, align 4, !tbaa !8
  %81 = add nsw i32 %80, 4
  store i32 %81, ptr %7, align 4, !tbaa !8
  br label %82

82:                                               ; preds = %60, %59
  %83 = load i32, ptr %7, align 4, !tbaa !8
  call void @llvm.lifetime.end.p0(i64 4, ptr %10) #10
  call void @llvm.lifetime.end.p0(i64 4, ptr %9) #10
  ret i32 %83
}