; Function Attrs: nofree norecurse nosync nounwind memory(read, argmem: readwrite, inaccessiblemem: none) uwtable
define range(i32 -2147483640, -2147483648) i32 @Gia_AigerWriteCellMappingInstance(ptr noundef readonly captures(none) %0, ptr noundef writeonly captures(none) %1, i32 noundef %2, i32 noundef %3) local_unnamed_addr #7 {
  %5 = getelementptr i8, ptr %0, i64 288
  %.val = load ptr, ptr %5, align 8, !tbaa !63
  %6 = getelementptr i8, ptr %.val, i64 8
  %.val.val = load ptr, ptr %6, align 8, !tbaa !52
  %7 = sext i32 %3 to i64
  %8 = getelementptr inbounds i32, ptr %.val.val, i64 %7
  %9 = load i32, ptr %8, align 4, !tbaa !37
  %.not = icmp eq i32 %9, -1
  %10 = sext i32 %2 to i64
  %11 = getelementptr i8, ptr %1, i64 %10
  br i1 %.not, label %.preheader, label %12

12:                                               ; preds = %4
  %13 = sext i32 %9 to i64
  %14 = getelementptr inbounds i32, ptr %.val.val, i64 %13
  %15 = getelementptr inbounds nuw i8, ptr %14, i64 4
  %16 = load i32, ptr %14, align 4, !tbaa !37
  %17 = sext i32 %16 to i64
  %18 = getelementptr inbounds i32, ptr %15, i64 %17
  %19 = load i32, ptr %18, align 4, !tbaa !37
  br label %20

20:                                               ; preds = %20, %12
  %.06.i = phi i32 [ 3, %12 ], [ %25, %20 ]
  %.045.i = phi ptr [ %11, %12 ], [ %24, %20 ]
  %21 = shl nsw i32 %.06.i, 3
  %22 = ashr i32 %19, %21
  %23 = trunc i32 %22 to i8
  %24 = getelementptr inbounds nuw i8, ptr %.045.i, i64 1
  store i8 %23, ptr %.045.i, align 1, !tbaa !8
  %25 = add nsw i32 %.06.i, -1
  %.not.i = icmp eq i32 %.06.i, 0
  br i1 %.not.i, label %Gia_AigerWriteInt.exit, label %20, !llvm.loop !44

Gia_AigerWriteInt.exit:                           ; preds = %20
  %26 = getelementptr i8, ptr %11, i64 4
  br label %27

27:                                               ; preds = %27, %Gia_AigerWriteInt.exit
  %.06.i37 = phi i32 [ 3, %Gia_AigerWriteInt.exit ], [ %32, %27 ]
  %.045.i38 = phi ptr [ %26, %Gia_AigerWriteInt.exit ], [ %31, %27 ]
  %28 = shl nsw i32 %.06.i37, 3
  %29 = ashr i32 %3, %28
  %30 = trunc i32 %29 to i8
  %31 = getelementptr inbounds nuw i8, ptr %.045.i38, i64 1
  store i8 %30, ptr %.045.i38, align 1, !tbaa !8
  %32 = add nsw i32 %.06.i37, -1
  %.not.i39 = icmp eq i32 %.06.i37, 0
  br i1 %.not.i39, label %Gia_AigerWriteInt.exit40, label %27, !llvm.loop !44

Gia_AigerWriteInt.exit40:                         ; preds = %27
  %33 = add i32 %2, 8
  %.val3557 = load ptr, ptr %5, align 8, !tbaa !63
  %34 = getelementptr i8, ptr %.val3557, i64 8
  %.val35.val58 = load ptr, ptr %34, align 8, !tbaa !52
  %35 = getelementptr inbounds i32, ptr %.val35.val58, i64 %7
  %36 = load i32, ptr %35, align 4, !tbaa !37
  %37 = sext i32 %36 to i64
  %38 = getelementptr inbounds i32, ptr %.val35.val58, i64 %37
  %39 = load i32, ptr %38, align 4, !tbaa !37
  %40 = icmp sgt i32 %39, 0
  br i1 %40, label %.lr.ph.preheader, label %.critedge

.lr.ph.preheader:                                 ; preds = %Gia_AigerWriteInt.exit40
  %41 = sext i32 %33 to i64
  br label %.lr.ph

.lr.ph:                                           ; preds = %.lr.ph.preheader, %Gia_AigerWriteInt.exit44
  %indvars.iv61 = phi i64 [ 0, %.lr.ph.preheader ], [ %indvars.iv.next62, %Gia_AigerWriteInt.exit44 ]
  %indvars.iv = phi i64 [ %41, %.lr.ph.preheader ], [ %indvars.iv.next, %Gia_AigerWriteInt.exit44 ]
  %42 = phi ptr [ %38, %.lr.ph.preheader ], [ %57, %Gia_AigerWriteInt.exit44 ]
  %43 = getelementptr inbounds nuw i8, ptr %42, i64 4
  %44 = getelementptr inbounds nuw i32, ptr %43, i64 %indvars.iv61
  %45 = load i32, ptr %44, align 4, !tbaa !37
  %46 = getelementptr inbounds i8, ptr %1, i64 %indvars.iv
  br label %47

47:                                               ; preds = %47, %.lr.ph
  %.06.i41 = phi i32 [ 3, %.lr.ph ], [ %52, %47 ]
  %.045.i42 = phi ptr [ %46, %.lr.ph ], [ %51, %47 ]
  %48 = shl nsw i32 %.06.i41, 3
  %49 = ashr i32 %45, %48
  %50 = trunc i32 %49 to i8
  %51 = getelementptr inbounds nuw i8, ptr %.045.i42, i64 1
  store i8 %50, ptr %.045.i42, align 1, !tbaa !8
  %52 = add nsw i32 %.06.i41, -1
  %.not.i43 = icmp eq i32 %.06.i41, 0
  br i1 %.not.i43, label %Gia_AigerWriteInt.exit44, label %47, !llvm.loop !44

Gia_AigerWriteInt.exit44:                         ; preds = %47
  %indvars.iv.next = add nsw i64 %indvars.iv, 4
  %indvars.iv.next62 = add nuw nsw i64 %indvars.iv61, 1
  %.val35 = load ptr, ptr %5, align 8, !tbaa !63
  %53 = getelementptr i8, ptr %.val35, i64 8
  %.val35.val = load ptr, ptr %53, align 8, !tbaa !52
  %54 = getelementptr inbounds i32, ptr %.val35.val, i64 %7
  %55 = load i32, ptr %54, align 4, !tbaa !37
  %56 = sext i32 %55 to i64
  %57 = getelementptr inbounds i32, ptr %.val35.val, i64 %56
  %58 = load i32, ptr %57, align 4, !tbaa !37
  %59 = sext i32 %58 to i64
  %60 = icmp slt i64 %indvars.iv.next62, %59
  br i1 %60, label %.lr.ph, label %.critedge.loopexit, !llvm.loop !64

.preheader:                                       ; preds = %4, %.preheader
  %.06.i45 = phi i32 [ %65, %.preheader ], [ 3, %4 ]
  %.045.i46 = phi ptr [ %64, %.preheader ], [ %11, %4 ]
  %61 = shl nsw i32 %.06.i45, 3
  %62 = lshr i32 3, %61
  %63 = trunc nuw nsw i32 %62 to i8
  %64 = getelementptr inbounds nuw i8, ptr %.045.i46, i64 1
  store i8 %63, ptr %.045.i46, align 1, !tbaa !8
  %65 = add nsw i32 %.06.i45, -1
  %.not.i47 = icmp eq i32 %.06.i45, 0
  br i1 %.not.i47, label %Gia_AigerWriteInt.exit48, label %.preheader, !llvm.loop !44

Gia_AigerWriteInt.exit48:                         ; preds = %.preheader
  %66 = getelementptr i8, ptr %11, i64 4
  br label %67

67:                                               ; preds = %67, %Gia_AigerWriteInt.exit48
  %.06.i49 = phi i32 [ 3, %Gia_AigerWriteInt.exit48 ], [ %72, %67 ]
  %.045.i50 = phi ptr [ %66, %Gia_AigerWriteInt.exit48 ], [ %71, %67 ]
  %68 = shl nsw i32 %.06.i49, 3
  %69 = ashr i32 %3, %68
  %70 = trunc i32 %69 to i8
  %71 = getelementptr inbounds nuw i8, ptr %.045.i50, i64 1
  store i8 %70, ptr %.045.i50, align 1, !tbaa !8
  %72 = add nsw i32 %.06.i49, -1
  %.not.i51 = icmp eq i32 %.06.i49, 0
  br i1 %.not.i51, label %Gia_AigerWriteInt.exit52, label %67, !llvm.loop !44

Gia_AigerWriteInt.exit52:                         ; preds = %67
  %73 = getelementptr i8, ptr %11, i64 8
  %74 = xor i32 %3, 1
  br label %75

75:                                               ; preds = %75, %Gia_AigerWriteInt.exit52
  %.06.i53 = phi i32 [ 3, %Gia_AigerWriteInt.exit52 ], [ %80, %75 ]
  %.045.i54 = phi ptr [ %73, %Gia_AigerWriteInt.exit52 ], [ %79, %75 ]
  %76 = shl nsw i32 %.06.i53, 3
  %77 = ashr i32 %74, %76
  %78 = trunc i32 %77 to i8
  %79 = getelementptr inbounds nuw i8, ptr %.045.i54, i64 1
  store i8 %78, ptr %.045.i54, align 1, !tbaa !8
  %80 = add nsw i32 %.06.i53, -1
  %.not.i55 = icmp eq i32 %.06.i53, 0
  br i1 %.not.i55, label %Gia_AigerWriteInt.exit56, label %75, !llvm.loop !44

Gia_AigerWriteInt.exit56:                         ; preds = %75
  %81 = add nsw i32 %2, 12
  br label %.critedge

.critedge.loopexit:                               ; preds = %Gia_AigerWriteInt.exit44
  %82 = trunc nsw i64 %indvars.iv.next to i32
  br label %.critedge

.critedge:                                        ; preds = %.critedge.loopexit, %Gia_AigerWriteInt.exit40, %Gia_AigerWriteInt.exit56
  %.1 = phi i32 [ %81, %Gia_AigerWriteInt.exit56 ], [ %33, %Gia_AigerWriteInt.exit40 ], [ %82, %.critedge.loopexit ]
  ret i32 %.1
}